target datalayout = "e-m:e-p270:32:32-p271:32:32-p272:64:64-i64:64-i128:128-f80:128-n8:16:32:64-S128"
target triple = "x86_64-pc-linux-gnu"

@.str.1 = private unnamed_addr constant [31 x i8] c"../openssl/crypto/ts/ts_conf.c\00", align 1
@.str.6 = private unnamed_addr constant [8 x i8] c"builtin\00", align 1
@.str.7 = private unnamed_addr constant [5 x i8] c"chil\00", align 1
@__func__.TS_CONF_set_default_engine = private unnamed_addr constant [27 x i8] c"TS_CONF_set_default_engine\00", align 1
@.str.8 = private unnamed_addr constant [10 x i8] c"engine:%s\00", align 1

; Function Attrs: nounwind uwtable
define i32 @TS_CONF_set_default_engine(ptr noundef %0) #0 {
  %2 = alloca i32, align 4
  %3 = alloca ptr, align 8
  %4 = alloca ptr, align 8
  %5 = alloca i32, align 4
  %6 = alloca i32, align 4
  store ptr %0, ptr %3, align 8, !tbaa !3
  call void @llvm.lifetime.start.p0(i64 8, ptr %4) #7
  store ptr null, ptr %4, align 8, !tbaa !35
  call void @llvm.lifetime.start.p0(i64 4, ptr %5) #7
  store i32 0, ptr %5, align 4, !tbaa !16
  %7 = load ptr, ptr %3, align 8, !tbaa !3
  %8 = call i32 @strcmp(ptr noundef %7, ptr noundef @.str.6) #8
  %9 = icmp eq i32 %8, 0
  br i1 %9, label %10, label %11

10:                                               ; preds = %1
  store i32 1, ptr %2, align 4
  store i32 1, ptr %6, align 4
  br label %38

11:                                               ; preds = %1
  %12 = load ptr, ptr %3, align 8, !tbaa !3
  %13 = call ptr @ENGINE_by_id(ptr noundef %12)
  store ptr %13, ptr %4, align 8, !tbaa !35
  %14 = icmp eq ptr %13, null
  br i1 %14, label %15, label %16

15:                                               ; preds = %11
  br label %29

16:                                               ; preds = %11
  %17 = load ptr, ptr %3, align 8, !tbaa !3
  %18 = call i32 @strcmp(ptr noundef %17, ptr noundef @.str.7) #8
  %19 = icmp eq i32 %18, 0
  br i1 %19, label %20, label %23

20:                                               ; preds = %16
  %21 = load ptr, ptr %4, align 8, !tbaa !35
  %22 = call i32 @ENGINE_ctrl(ptr noundef %21, i32 noundef 100, i64 noundef 1, ptr noundef null, ptr noundef null)
  br label %23

23:                                               ; preds = %20, %16
  %24 = load ptr, ptr %4, align 8, !tbaa !35
  %25 = call i32 @ENGINE_set_default(ptr noundef %24, i32 noundef 65535)
  %26 = icmp ne i32 %25, 0
  br i1 %26, label %28, label %27

27:                                               ; preds = %23
  br label %29

28:                                               ; preds = %23
  store i32 1, ptr %5, align 4, !tbaa !16
  br label %29

29:                                               ; preds = %28, %27, %15
  %30 = load i32, ptr %5, align 4, !tbaa !16
  %31 = icmp ne i32 %30, 0
  br i1 %31, label %34, label %32

32:                                               ; preds = %29
  call void @ERR_new()
  call void @ERR_set_debug(ptr noundef @.str.1, i32 noundef 198, ptr noundef @__func__.TS_CONF_set_default_engine)
  %33 = load ptr, ptr %3, align 8, !tbaa !3
  call void (i32, i32, ptr, ...) @ERR_set_error(i32 noundef 47, i32 noundef 127, ptr noundef @.str.8, ptr noundef %33)
  br label %34

34:                                               ; preds = %32, %29
  %35 = load ptr, ptr %4, align 8, !tbaa !35
  %36 = call i32 @ENGINE_free(ptr noundef %35)
  %37 = load i32, ptr %5, align 4, !tbaa !16
  store i32 %37, ptr %2, align 4
  store i32 1, ptr %6, align 4
  br label %38

38:                                               ; preds = %34, %10
  call void @llvm.lifetime.end.p0(i64 4, ptr %5) #7
  call void @llvm.lifetime.end.p0(i64 8, ptr %4) #7
  %39 = load i32, ptr %2, align 4
  ret i32 %39
}