; Function Attrs: nounwind uwtable
define range(i32 0, 2) i32 @TS_CONF_set_default_engine(ptr noundef %0) local_unnamed_addr #0 {
  %2 = tail call i32 @strcmp(ptr noundef nonnull dereferenceable(1) %0, ptr noundef nonnull dereferenceable(8) @.str.6) #5
  %3 = icmp eq i32 %2, 0
  br i1 %3, label %16, label %4

4:                                                ; preds = %1
  %5 = tail call ptr @ENGINE_by_id(ptr noundef nonnull %0) #4
  %6 = icmp eq ptr %5, null
  br i1 %6, label %.thread, label %7

7:                                                ; preds = %4
  %8 = tail call i32 @strcmp(ptr noundef nonnull dereferenceable(1) %0, ptr noundef nonnull dereferenceable(5) @.str.7) #5
  %9 = icmp eq i32 %8, 0
  br i1 %9, label %10, label %12

10:                                               ; preds = %7
  %11 = tail call i32 @ENGINE_ctrl(ptr noundef nonnull %5, i32 noundef 100, i64 noundef 1, ptr noundef null, ptr noundef null) #4
  br label %12

12:                                               ; preds = %7, %10
  %13 = tail call i32 @ENGINE_set_default(ptr noundef nonnull %5, i32 noundef 65535) #4
  %.not = icmp eq i32 %13, 0
  br i1 %.not, label %.thread, label %14

.thread:                                          ; preds = %4, %12
  tail call void @ERR_new() #4
  tail call void @ERR_set_debug(ptr noundef nonnull @.str.1, i32 noundef 198, ptr noundef nonnull @__func__.TS_CONF_set_default_engine) #4
  tail call void (i32, i32, ptr, ...) @ERR_set_error(i32 noundef 47, i32 noundef 127, ptr noundef nonnull @.str.8, ptr noundef nonnull %0) #4
  br label %14

14:                                               ; preds = %.thread, %12
  %.015 = phi i32 [ 0, %.thread ], [ 1, %12 ]
  %15 = tail call i32 @ENGINE_free(ptr noundef %5) #4
  br label %16

16:                                               ; preds = %1, %14
  %.09 = phi i32 [ %.015, %14 ], [ 1, %1 ]
  ret i32 %.09
}